target datalayout = "e-m:e-p270:32:32-p271:32:32-p272:64:64-i64:64-i128:128-f80:128-n8:16:32:64-S128"
target triple = "x86_64-pc-linux-gnu"

%struct.SparseMatrix_struct = type { i32, i32, i32, i32, i32, ptr, ptr, ptr, i32, i8, i64 }

; Function Attrs: nounwind uwtable
define void @SparseMatrix_delete(ptr noundef %0) #0 {
  %2 = alloca ptr, align 8
  store ptr %0, ptr %2, align 8, !tbaa !3
  %3 = load ptr, ptr %2, align 8, !tbaa !3
  %4 = icmp ne ptr %3, null
  br i1 %4, label %6, label %5

5:                                                ; preds = %1
  br label %17

6:                                                ; preds = %1
  %7 = load ptr, ptr %2, align 8, !tbaa !3
  %8 = getelementptr inbounds nuw %struct.SparseMatrix_struct, ptr %7, i32 0, i32 5
  %9 = load ptr, ptr %8, align 8, !tbaa !8
  call void @free(ptr noundef %9) #11
  %10 = load ptr, ptr %2, align 8, !tbaa !3
  %11 = getelementptr inbounds nuw %struct.SparseMatrix_struct, ptr %10, i32 0, i32 6
  %12 = load ptr, ptr %11, align 8, !tbaa !15
  call void @free(ptr noundef %12) #11
  %13 = load ptr, ptr %2, align 8, !tbaa !3
  %14 = getelementptr inbounds nuw %struct.SparseMatrix_struct, ptr %13, i32 0, i32 7
  %15 = load ptr, ptr %14, align 8, !tbaa !27
  call void @free(ptr noundef %15) #11
  %16 = load ptr, ptr %2, align 8, !tbaa !3
  call void @free(ptr noundef %16) #11
  br label %17

17:                                               ; preds = %6, %5
  ret void
}