; Function Attrs: mustprogress nounwind willreturn uwtable
define void @SparseMatrix_delete(ptr noundef captures(address_is_null) %0) local_unnamed_addr #2 {
  %.not = icmp eq ptr %0, null
  br i1 %.not, label %9, label %2

2:                                                ; preds = %1
  %3 = getelementptr inbounds nuw i8, ptr %0, i64 24
  %4 = load ptr, ptr %3, align 8, !tbaa !3
  tail call void @free(ptr noundef %4) #17
  %5 = getelementptr inbounds nuw i8, ptr %0, i64 32
  %6 = load ptr, ptr %5, align 8, !tbaa !12
  tail call void @free(ptr noundef %6) #17
  %7 = getelementptr inbounds nuw i8, ptr %0, i64 40
  %8 = load ptr, ptr %7, align 8, !tbaa !13
  tail call void @free(ptr noundef %8) #17
  tail call void @free(ptr noundef nonnull %0) #17
  br label %9

9:                                                ; preds = %1, %2
  ret void
}